; Function Attrs: mustprogress uwtable
define internal void @_ZL50InitDefaultsscc_info_TensorAnnotation_onnx_2eprotov() #3 personality ptr @__gxx_personality_v0 {
  tail call void @_ZN6google8protobuf8internal13VerifyVersionEiiPKc(i32 noundef 3012004, i32 noundef 3012000, ptr noundef nonnull @.str.10)
  store ptr null, ptr getelementptr inbounds nuw (i8, ptr @_ZN4onnx35_TensorAnnotation_default_instance_E, i64 8), align 8, !tbaa !4
  store ptr getelementptr inbounds nuw inrange(-16, 160) (i8, ptr @_ZTVN4onnx16TensorAnnotationE, i64 16), ptr @_ZN4onnx35_TensorAnnotation_default_instance_E, align 8, !tbaa !9
  tail call void @llvm.memset.p0.i64(ptr noundef nonnull align 8 dereferenceable(32) getelementptr inbounds nuw (i8, ptr @_ZN4onnx35_TensorAnnotation_default_instance_E, i64 16), i8 0, i64 32, i1 false)
  %1 = load atomic i32, ptr @scc_info_TensorAnnotation_onnx_2eproto acquire, align 8
  %.not.i.i.i.i = icmp eq i32 %1, 0
  br i1 %.not.i.i.i.i, label %_ZN4onnx16TensorAnnotationC2Ev.exit, label %2, !prof !11

2:                                                ; preds = %0
  invoke void @_ZN6google8protobuf8internal11InitSCCImplEPNS1_11SCCInfoBaseE(ptr noundef nonnull @scc_info_TensorAnnotation_onnx_2eproto)
          to label %_ZN4onnx16TensorAnnotationC2Ev.exit unwind label %3

3:                                                ; preds = %2
  %4 = landingpad { ptr, i32 }
          cleanup
  tail call void @_ZN6google8protobuf16RepeatedPtrFieldIN4onnx22StringStringEntryProtoEED2Ev(ptr noundef nonnull align 8 dereferenceable(24) getelementptr inbounds nuw (i8, ptr @_ZN4onnx35_TensorAnnotation_default_instance_E, i64 24)) #23
  resume { ptr, i32 } %4

_ZN4onnx16TensorAnnotationC2Ev.exit:              ; preds = %0, %2
  store ptr @_ZN6google8protobuf8internal26fixed_address_empty_stringB5cxx11E, ptr getelementptr inbounds nuw (i8, ptr @_ZN4onnx35_TensorAnnotation_default_instance_E, i64 48), align 8, !tbaa !12
  tail call void @_ZN6google8protobuf8internal13OnShutdownRunEPFvPKvES3_(ptr noundef nonnull @_ZN6google8protobuf8internal14DestroyMessageEPKv, ptr noundef nonnull @_ZN4onnx35_TensorAnnotation_default_instance_E)
  ret void
}